; Function Attrs: mustprogress uwtable
define hidden void @_ZNK7datalog11rel_context18collect_statisticsER10statistics(ptr noundef nonnull align 8 dereferenceable(432) %this, ptr noundef nonnull align 8 dereferenceable(16) %st) unnamed_addr #3 align 2 {
entry:
  %m_sw = getelementptr inbounds i8, ptr %this, i64 424
  %0 = load double, ptr %m_sw, align 8
  tail call void @_ZN10statistics6updateEPKcd(ptr noundef nonnull align 8 dereferenceable(16) %st, ptr noundef nonnull @.str.9, double noundef %0)
  %m_code = getelementptr inbounds i8, ptr %this, i64 408
  tail call void @_ZNK7datalog17instruction_block18collect_statisticsER10statistics(ptr noundef nonnull align 8 dereferenceable(16) %m_code, ptr noundef nonnull align 8 dereferenceable(16) %st)
  %m_ectx = getelementptr inbounds i8, ptr %this, i64 296
  tail call void @_ZNK7datalog17execution_context18collect_statisticsER10statistics(ptr noundef nonnull align 8 dereferenceable(108) %m_ectx, ptr noundef nonnull align 8 dereferenceable(16) %st)
  ret void
}